target datalayout = "e-m:e-p270:32:32-p271:32:32-p272:64:64-i64:64-i128:128-f80:128-n8:16:32:64-S128"
target triple = "x86_64-pc-linux-gnu"

%struct.darktable_t = type { %struct.dt_codepath_t, i32, i32, ptr, ptr, ptr, ptr, ptr, ptr, ptr, ptr, ptr, ptr, ptr, ptr, ptr, ptr, ptr, ptr, ptr, ptr, ptr, ptr, ptr, ptr, ptr, ptr, ptr, ptr, ptr, [64 x %struct.dt_pthread_mutex_t], %struct.dt_pthread_mutex_t, %struct.dt_pthread_mutex_t, %struct.dt_pthread_mutex_t, %struct.dt_pthread_mutex_t, %struct.dt_pthread_mutex_t, ptr, ptr, ptr, ptr, ptr, ptr, ptr, ptr, ptr, ptr, ptr, ptr, ptr, %struct.dt_lua_state_t, ptr, double, ptr, i32, [47 x i32], i32, i32, ptr, ptr, %struct.dt_sys_resources_t, %struct.dt_backthumb_t, %struct.dt_gimp_t }
%struct.dt_codepath_t = type { i8, [3 x i8] }
%struct.dt_pthread_mutex_t = type { %union.pthread_mutex_t }
%union.pthread_mutex_t = type { %struct.__pthread_mutex_s }
%struct.__pthread_mutex_s = type { i32, i32, i32, i32, i32, i16, i16, %struct.__pthread_internal_list }
%struct.__pthread_internal_list = type { ptr, ptr }
%struct.dt_lua_state_t = type { i32 }
%struct.dt_sys_resources_t = type { i64, i64, ptr, ptr, i32 }
%struct.dt_backthumb_t = type { double, double, i32, i32, i32, i32 }
%struct.dt_gimp_t = type { i32, ptr, ptr, i32, i32 }

@darktable = external global %struct.darktable_t, align 8
@.str = private unnamed_addr constant [41 x i8] c"[sql] %s:%d, function %s(): prepare \22%s\22\00", align 1
@.str.1 = private unnamed_addr constant [115 x i8] c"generated/home/dtcxzyw/WorkSpace/Projects/compilers/llvm-opt-benchmark/bench/darktable/darktable/src/common/tags.c\00", align 1
@stderr = external global ptr, align 8
@.str.3 = private unnamed_addr constant [53 x i8] c"sqlite3 error: %s:%d, function %s(), query \22%s\22: %s\0A\00", align 1
@.str.24 = private unnamed_addr constant [70 x i8] c"SELECT COUNT(tagid) FROM main.tagged_images WHERE imgid = %d       %s\00", align 1
@.str.25 = private unnamed_addr constant [40 x i8] c" AND tagid NOT IN memory.darktable_tags\00", align 1
@.str.26 = private unnamed_addr constant [1 x i8] zeroinitializer, align 1
@__FUNCTION__.dt_tag_count_attached = private unnamed_addr constant [22 x i8] c"dt_tag_count_attached\00", align 1

; Function Attrs: nounwind uwtable
define i32 @dt_tag_count_attached(i32 noundef %0, i32 noundef %1) #0 {
  %3 = alloca i32, align 4
  %4 = alloca i32, align 4
  %5 = alloca i32, align 4
  %6 = alloca ptr, align 8
  %7 = alloca ptr, align 8
  %8 = alloca i32, align 4
  %9 = alloca i32, align 4
  store i32 %0, ptr %4, align 4, !tbaa !52
  store i32 %1, ptr %5, align 4, !tbaa !52
  %10 = load i32, ptr %4, align 4, !tbaa !52
  %11 = icmp sgt i32 %10, 0
  br i1 %11, label %13, label %12

12:                                               ; preds = %2
  store i32 0, ptr %3, align 4
  br label %61

13:                                               ; preds = %2
  call void @llvm.lifetime.start.p0(i64 8, ptr %6) #8
  call void @llvm.lifetime.start.p0(i64 8, ptr %7) #8
  %14 = load i32, ptr %4, align 4, !tbaa !52
  %15 = load i32, ptr %5, align 4, !tbaa !52
  %16 = icmp ne i32 %15, 0
  %17 = select i1 %16, ptr @.str.25, ptr @.str.26
  %18 = call noalias ptr (ptr, ...) @g_strdup_printf(ptr noundef @.str.24, i32 noundef %14, ptr noundef %17)
  store ptr %18, ptr %7, align 8, !tbaa !6
  br label %19

19:                                               ; preds = %13
  br label %20

20:                                               ; preds = %19
  %21 = load i32, ptr getelementptr inbounds nuw (%struct.darktable_t, ptr @darktable, i32 0, i32 2), align 8, !tbaa !14
  %22 = and i32 256, %21
  %23 = icmp ne i32 %22, 0
  br i1 %23, label %24, label %31

24:                                               ; preds = %20
  %25 = load i32, ptr getelementptr inbounds nuw (%struct.darktable_t, ptr @darktable, i32 0, i32 2), align 8, !tbaa !14
  %26 = xor i32 %25, -1
  %27 = and i32 0, %26
  %28 = icmp ne i32 %27, 0
  br i1 %28, label %31, label %29

29:                                               ; preds = %24
  %30 = load ptr, ptr %7, align 8, !tbaa !6
  call void (ptr, ...) @dt_print_ext(ptr noundef @.str, ptr noundef @.str.1, i32 noundef 717, ptr noundef @__FUNCTION__.dt_tag_count_attached, ptr noundef %30)
  br label %31

31:                                               ; preds = %29, %24, %20
  br label %32

32:                                               ; preds = %31
  br label %33

33:                                               ; preds = %32
  call void @llvm.lifetime.start.p0(i64 4, ptr %8) #8
  %34 = load ptr, ptr getelementptr inbounds nuw (%struct.darktable_t, ptr @darktable, i32 0, i32 18), align 8, !tbaa !51
  %35 = call ptr @dt_database_get(ptr noundef %34)
  %36 = load ptr, ptr %7, align 8, !tbaa !6
  %37 = call i32 @sqlite3_prepare_v2(ptr noundef %35, ptr noundef %36, i32 noundef -1, ptr noundef %6, ptr noundef null)
  store i32 %37, ptr %8, align 4, !tbaa !52
  %38 = load i32, ptr %8, align 4, !tbaa !52
  %39 = icmp ne i32 %38, 0
  br i1 %39, label %40, label %47

40:                                               ; preds = %33
  %41 = load ptr, ptr @stderr, align 8, !tbaa !53
  %42 = load ptr, ptr %7, align 8, !tbaa !6
  %43 = load ptr, ptr getelementptr inbounds nuw (%struct.darktable_t, ptr @darktable, i32 0, i32 18), align 8, !tbaa !51
  %44 = call ptr @dt_database_get(ptr noundef %43)
  %45 = call ptr @sqlite3_errmsg(ptr noundef %44)
  %46 = call i32 (ptr, ptr, ...) @fprintf(ptr noundef %41, ptr noundef @.str.3, ptr noundef @.str.1, i32 noundef 717, ptr noundef @__FUNCTION__.dt_tag_count_attached, ptr noundef %42, ptr noundef %45) #8
  br label %47

47:                                               ; preds = %40, %33
  call void @llvm.lifetime.end.p0(i64 4, ptr %8) #8
  br label %48

48:                                               ; preds = %47
  br label %49

49:                                               ; preds = %48
  %50 = load ptr, ptr %7, align 8, !tbaa !6
  call void @g_free(ptr noundef %50)
  call void @llvm.lifetime.start.p0(i64 4, ptr %9) #8
  store i32 0, ptr %9, align 4, !tbaa !52
  %51 = load ptr, ptr %6, align 8, !tbaa !55
  %52 = call i32 @sqlite3_step(ptr noundef %51)
  %53 = icmp eq i32 %52, 100
  br i1 %53, label %54, label %57

54:                                               ; preds = %49
  %55 = load ptr, ptr %6, align 8, !tbaa !55
  %56 = call i32 @sqlite3_column_int(ptr noundef %55, i32 noundef 0)
  store i32 %56, ptr %9, align 4, !tbaa !52
  br label %57

57:                                               ; preds = %54, %49
  %58 = load ptr, ptr %6, align 8, !tbaa !55
  %59 = call i32 @sqlite3_finalize(ptr noundef %58)
  %60 = load i32, ptr %9, align 4, !tbaa !52
  store i32 %60, ptr %3, align 4
  call void @llvm.lifetime.end.p0(i64 4, ptr %9) #8
  call void @llvm.lifetime.end.p0(i64 8, ptr %7) #8
  call void @llvm.lifetime.end.p0(i64 8, ptr %6) #8
  br label %61

61:                                               ; preds = %57, %12
  %62 = load i32, ptr %3, align 4
  ret i32 %62
}