; Function Attrs: nounwind uwtable
define i32 @dt_tag_count_attached(i32 noundef %0, i32 noundef %1) local_unnamed_addr #0 {
  %3 = alloca ptr, align 8
  %4 = icmp sgt i32 %0, 0
  br i1 %4, label %5, label %31

5:                                                ; preds = %2
  call void @llvm.lifetime.start.p0(i64 8, ptr nonnull %3) #11
  %.not = icmp eq i32 %1, 0
  %6 = select i1 %.not, ptr @.str.26, ptr @.str.25
  %7 = tail call noalias ptr (ptr, ...) @g_strdup_printf(ptr noundef nonnull @.str.24, i32 noundef %0, ptr noundef nonnull %6) #11
  %8 = load i32, ptr getelementptr inbounds nuw (i8, ptr @darktable, i64 8), align 8, !tbaa !9
  %9 = and i32 %8, 256
  %.not11 = icmp eq i32 %9, 0
  br i1 %.not11, label %11, label %10

10:                                               ; preds = %5
  tail call void (ptr, ...) @dt_print_ext(ptr noundef nonnull @.str, ptr noundef nonnull @.str.1, i32 noundef 717, ptr noundef nonnull @__FUNCTION__.dt_tag_count_attached, ptr noundef %7) #11
  br label %11

11:                                               ; preds = %10, %5
  %12 = load ptr, ptr getelementptr inbounds nuw (i8, ptr @darktable, i64 136), align 8, !tbaa !49
  %13 = tail call ptr @dt_database_get(ptr noundef %12) #11
  %14 = call i32 @sqlite3_prepare_v2(ptr noundef %13, ptr noundef %7, i32 noundef -1, ptr noundef nonnull %3, ptr noundef null) #11
  %.not12 = icmp eq i32 %14, 0
  br i1 %.not12, label %21, label %15

15:                                               ; preds = %11
  %16 = load ptr, ptr @stderr, align 8, !tbaa !50
  %17 = load ptr, ptr getelementptr inbounds nuw (i8, ptr @darktable, i64 136), align 8, !tbaa !49
  %18 = call ptr @dt_database_get(ptr noundef %17) #11
  %19 = call ptr @sqlite3_errmsg(ptr noundef %18) #11
  %20 = call i32 (ptr, ptr, ...) @fprintf(ptr noundef %16, ptr noundef nonnull @.str.3, ptr noundef nonnull @.str.1, i32 noundef 717, ptr noundef nonnull @__FUNCTION__.dt_tag_count_attached, ptr noundef %7, ptr noundef %19) #12
  br label %21

21:                                               ; preds = %15, %11
  call void @g_free(ptr noundef %7) #11
  %22 = load ptr, ptr %3, align 8, !tbaa !52
  %23 = call i32 @sqlite3_step(ptr noundef %22) #11
  %24 = icmp eq i32 %23, 100
  br i1 %24, label %25, label %28

25:                                               ; preds = %21
  %26 = load ptr, ptr %3, align 8, !tbaa !52
  %27 = call i32 @sqlite3_column_int(ptr noundef %26, i32 noundef 0) #11
  br label %28

28:                                               ; preds = %25, %21
  %.0 = phi i32 [ %27, %25 ], [ 0, %21 ]
  %29 = load ptr, ptr %3, align 8, !tbaa !52
  %30 = call i32 @sqlite3_finalize(ptr noundef %29) #11
  call void @llvm.lifetime.end.p0(i64 8, ptr nonnull %3) #11
  br label %31

31:                                               ; preds = %2, %28
  %.09 = phi i32 [ %.0, %28 ], [ 0, %2 ]
  ret i32 %.09
}